; ModuleID = '52/4082.c'
source_filename = "52/4082.c"
target datalayout = "e-m:e-p270:32:32-p271:32:32-p272:64:64-i64:64-f80:128-n8:16:32:64-S128"
target triple = "x86_64-pc-linux-gnu"

@t = dso_local global i32 0, align 4
@.str = private unnamed_addr constant [6 x i8] c"%d %d\00", align 1
@.str.1 = private unnamed_addr constant [3 x i8] c"%d\00", align 1
@.str.2 = private unnamed_addr constant [4 x i8] c"%d \00", align 1

; Function Attrs: noinline nounwind uwtable
define dso_local void @range(i32 %0, i32 %1, i32* %2) #0 {
  %4 = alloca i32, align 4
  %5 = alloca i32, align 4
  %6 = alloca i32*, align 8
  %7 = alloca i32, align 4
  %8 = alloca i32, align 4
  store i32 %0, i32* %4, align 4
  store i32 %1, i32* %5, align 4
  store i32* %2, i32** %6, align 8
  %9 = load i32, i32* @t, align 4
  %10 = load i32, i32* %5, align 4
  %11 = icmp eq i32 %9, %10
  br i1 %11, label %12, label %13

12:                                               ; preds = %3
  br label %47

13:                                               ; preds = %3
  %14 = load i32, i32* @t, align 4
  %15 = add nsw i32 %14, 1
  store i32 %15, i32* @t, align 4
  %16 = load i32, i32* %4, align 4
  %17 = load i32, i32* %5, align 4
  %18 = load i32*, i32** %6, align 8
  call void @range(i32 %16, i32 %17, i32* %18)
  %19 = load i32*, i32** %6, align 8
  %20 = load i32, i32* %4, align 4
  %21 = sext i32 %20 to i64
  %22 = getelementptr inbounds i32, i32* %19, i64 %21
  %23 = getelementptr inbounds i32, i32* %22, i64 -1
  %24 = load i32, i32* %23, align 4
  store i32 %24, i32* %7, align 4
  %25 = load i32, i32* %4, align 4
  %26 = sub nsw i32 %25, 1
  store i32 %26, i32* %8, align 4
  br label %27

27:                                               ; preds = %41, %13
  %28 = load i32, i32* %8, align 4
  %29 = icmp sgt i32 %28, 0
  br i1 %29, label %30, label %44

30:                                               ; preds = %27
  %31 = load i32*, i32** %6, align 8
  %32 = load i32, i32* %8, align 4
  %33 = sext i32 %32 to i64
  %34 = getelementptr inbounds i32, i32* %31, i64 %33
  %35 = getelementptr inbounds i32, i32* %34, i64 -1
  %36 = load i32, i32* %35, align 4
  %37 = load i32*, i32** %6, align 8
  %38 = load i32, i32* %8, align 4
  %39 = sext i32 %38 to i64
  %40 = getelementptr inbounds i32, i32* %37, i64 %39
  store i32 %36, i32* %40, align 4
  br label %41

41:                                               ; preds = %30
  %42 = load i32, i32* %8, align 4
  %43 = add nsw i32 %42, -1
  store i32 %43, i32* %8, align 4
  br label %27

44:                                               ; preds = %27
  %45 = load i32, i32* %7, align 4
  %46 = load i32*, i32** %6, align 8
  store i32 %45, i32* %46, align 4
  br label %47

47:                                               ; preds = %12, %44
  ret void
}

; Function Attrs: noinline nounwind uwtable
define dso_local void @main() #0 {
  %1 = alloca i32, align 4
  %2 = alloca i32, align 4
  %3 = alloca [100 x i32], align 16
  %4 = alloca i32*, align 8
  %5 = alloca i32, align 4
  %6 = call i32 (i8*, ...) @__isoc99_scanf(i8* getelementptr inbounds ([6 x i8], [6 x i8]* @.str, i64 0, i64 0), i32* %1, i32* %2)
  %7 = getelementptr inbounds [100 x i32], [100 x i32]* %3, i64 0, i64 0
  store i32* %7, i32** %4, align 8
  store i32 0, i32* %5, align 4
  br label %8

8:                                                ; preds = %17, %0
  %9 = load i32, i32* %5, align 4
  %10 = load i32, i32* %1, align 4
  %11 = icmp slt i32 %9, %10
  br i1 %11, label %12, label %20

12:                                               ; preds = %8
  %13 = load i32, i32* %5, align 4
  %14 = sext i32 %13 to i64
  %15 = getelementptr inbounds [100 x i32], [100 x i32]* %3, i64 0, i64 %14
  %16 = call i32 (i8*, ...) @__isoc99_scanf(i8* getelementptr inbounds ([3 x i8], [3 x i8]* @.str.1, i64 0, i64 0), i32* %15)
  br label %17

17:                                               ; preds = %12
  %18 = load i32, i32* %5, align 4
  %19 = add nsw i32 %18, 1
  store i32 %19, i32* %5, align 4
  br label %8

20:                                               ; preds = %8
  %21 = load i32, i32* %1, align 4
  %22 = load i32, i32* %2, align 4
  %23 = load i32*, i32** %4, align 8
  call void @range(i32 %21, i32 %22, i32* %23)
  store i32 0, i32* %5, align 4
  br label %24

24:                                               ; preds = %35, %20
  %25 = load i32, i32* %5, align 4
  %26 = load i32, i32* %1, align 4
  %27 = sub nsw i32 %26, 1
  %28 = icmp slt i32 %25, %27
  br i1 %28, label %29, label %38

29:                                               ; preds = %24
  %30 = load i32, i32* %5, align 4
  %31 = sext i32 %30 to i64
  %32 = getelementptr inbounds [100 x i32], [100 x i32]* %3, i64 0, i64 %31
  %33 = load i32, i32* %32, align 4
  %34 = call i32 (i8*, ...) @printf(i8* getelementptr inbounds ([4 x i8], [4 x i8]* @.str.2, i64 0, i64 0), i32 %33)
  br label %35

35:                                               ; preds = %29
  %36 = load i32, i32* %5, align 4
  %37 = add nsw i32 %36, 1
  store i32 %37, i32* %5, align 4
  br label %24

38:                                               ; preds = %24
  %39 = load i32, i32* %1, align 4
  %40 = sub nsw i32 %39, 1
  %41 = sext i32 %40 to i64
  %42 = getelementptr inbounds [100 x i32], [100 x i32]* %3, i64 0, i64 %41
  %43 = load i32, i32* %42, align 4
  %44 = call i32 (i8*, ...) @printf(i8* getelementptr inbounds ([3 x i8], [3 x i8]* @.str.1, i64 0, i64 0), i32 %43)
  ret void
}

declare dso_local i32 @__isoc99_scanf(i8*, ...) #1

declare dso_local i32 @printf(i8*, ...) #1


!llvm.module.flags = !{!0}
!llvm.ident = !{!1}

!0 = !{i32 1, !"wchar_size", i32 4}
!1 = !{!"clang version 10.0.0-4ubuntu1 "}
